; Function Attrs: mustprogress uwtable
define void @_ZN6casadi13ShellCompilerC2ERKNSt7__cxx1112basic_stringIcSt11char_traitsIcESaIcEEE(ptr noundef nonnull align 8 dereferenceable(304) %0, ptr noundef nonnull align 8 dereferenceable(32) %1) unnamed_addr #4 align 2 personality ptr @__gxx_personality_v0 {
  tail call void @_ZN6casadi16ImporterInternalC2ERKNSt7__cxx1112basic_stringIcSt11char_traitsIcESaIcEEE(ptr noundef nonnull align 8 dereferenceable(161) %0, ptr noundef nonnull align 8 dereferenceable(32) %1)
  store ptr getelementptr inbounds nuw inrange(-16, 104) (i8, ptr @_ZTVN6casadi13ShellCompilerE, i64 16), ptr %0, align 8, !tbaa !20
  %3 = getelementptr inbounds nuw i8, ptr %0, i64 24
  store ptr getelementptr inbounds nuw inrange(-16, 8) (i8, ptr @_ZTVN6casadi13ShellCompilerE, i64 136), ptr %3, align 8, !tbaa !20
  %4 = getelementptr inbounds nuw i8, ptr %0, i64 168
  %5 = getelementptr inbounds nuw i8, ptr %0, i64 184
  store ptr %5, ptr %4, align 8, !tbaa !22
  %6 = getelementptr inbounds nuw i8, ptr %0, i64 176
  store i64 0, ptr %6, align 8, !tbaa !23
  store i8 0, ptr %5, align 8, !tbaa !24
  %7 = getelementptr inbounds nuw i8, ptr %0, i64 200
  %8 = getelementptr inbounds nuw i8, ptr %0, i64 216
  store ptr %8, ptr %7, align 8, !tbaa !22
  %9 = getelementptr inbounds nuw i8, ptr %0, i64 208
  store i64 0, ptr %9, align 8, !tbaa !23
  store i8 0, ptr %8, align 8, !tbaa !24
  %10 = getelementptr inbounds nuw i8, ptr %0, i64 232
  %11 = getelementptr inbounds nuw i8, ptr %0, i64 248
  store ptr %11, ptr %10, align 8, !tbaa !22
  %12 = getelementptr inbounds nuw i8, ptr %0, i64 240
  store i64 0, ptr %12, align 8, !tbaa !23
  store i8 0, ptr %11, align 8, !tbaa !24
  %13 = getelementptr inbounds nuw i8, ptr %0, i64 264
  tail call void @llvm.memset.p0.i64(ptr noundef nonnull align 8 dereferenceable(24) %13, i8 0, i64 24, i1 false)
  %14 = getelementptr inbounds nuw i8, ptr %0, i64 296
  store ptr null, ptr %14, align 8, !tbaa !25
  ret void
}